target datalayout = "e-m:e-p270:32:32-p271:32:32-p272:64:64-i64:64-i128:128-f80:128-n8:16:32:64-S128"
target triple = "x86_64-pc-linux-gnu"

@.str = private unnamed_addr constant [9 x i8] c"%s(): %s\00", align 1
@.str.1 = private unnamed_addr constant [17 x i8] c"Invalid argument\00", align 1
@TJBUFSIZE.FUNCTION_NAME = internal constant [10 x i8] c"TJBUFSIZE\00", align 1

; Function Attrs: nounwind uwtable
define i64 @TJBUFSIZE(i32 noundef %0, i32 noundef %1) #0 {
  %3 = alloca i32, align 4
  %4 = alloca i32, align 4
  %5 = alloca i64, align 8
  store i32 %0, ptr %3, align 4
  store i32 %1, ptr %4, align 4
  store i64 0, ptr %5, align 8
  %6 = load i32, ptr %3, align 4
  %7 = icmp slt i32 %6, 1
  br i1 %7, label %11, label %8

8:                                                ; preds = %2
  %9 = load i32, ptr %4, align 4
  %10 = icmp slt i32 %9, 1
  br i1 %10, label %11, label %15

11:                                               ; preds = %8, %2
  %12 = call align 16 ptr @llvm.threadlocal.address.p0(ptr align 16 @errStr)
  %13 = getelementptr inbounds [200 x i8], ptr %12, i64 0, i64 0
  %14 = call i32 (ptr, i64, ptr, ...) @snprintf(ptr noundef %13, i64 noundef 200, ptr noundef @.str, ptr noundef @TJBUFSIZE.FUNCTION_NAME, ptr noundef @.str.1) #11
  store i64 -1, ptr %5, align 8
  br label %28

15:                                               ; preds = %8
  %16 = load i32, ptr %3, align 4
  %17 = add nsw i32 %16, 16
  %18 = sub nsw i32 %17, 1
  %19 = and i32 %18, -16
  %20 = load i32, ptr %4, align 4
  %21 = add nsw i32 %20, 16
  %22 = sub nsw i32 %21, 1
  %23 = and i32 %22, -16
  %24 = mul nsw i32 %19, %23
  %25 = sext i32 %24 to i64
  %26 = mul i64 %25, 6
  %27 = add i64 %26, 2048
  store i64 %27, ptr %5, align 8
  br label %28

28:                                               ; preds = %15, %11
  %29 = load i64, ptr %5, align 8
  ret i64 %29
}