; Function Attrs: nofree nounwind uwtable
define range(i64 -1, 12884903931) i64 @TJBUFSIZE(i32 noundef %0, i32 noundef %1) local_unnamed_addr #6 {
  %3 = icmp slt i32 %0, 1
  %4 = icmp slt i32 %1, 1
  %or.cond = or i1 %3, %4
  br i1 %or.cond, label %5, label %8

5:                                                ; preds = %2
  %6 = tail call align 16 ptr @llvm.threadlocal.address.p0(ptr align 16 @errStr)
  %7 = tail call i32 (ptr, i64, ptr, ...) @snprintf(ptr noundef nonnull dereferenceable(1) %6, i64 noundef 200, ptr noundef nonnull @.str, ptr noundef nonnull @TJBUFSIZE.FUNCTION_NAME, ptr noundef nonnull @.str.1) #26
  br label %17

8:                                                ; preds = %2
  %9 = add nuw nsw i32 %0, 15
  %10 = and i32 %9, 2147483632
  %11 = add nuw nsw i32 %1, 15
  %12 = and i32 %11, 2147483632
  %13 = mul nuw nsw i32 %12, %10
  %14 = zext nneg i32 %13 to i64
  %15 = mul nuw nsw i64 %14, 6
  %16 = add nuw nsw i64 %15, 2048
  br label %17

17:                                               ; preds = %8, %5
  %.0 = phi i64 [ -1, %5 ], [ %16, %8 ]
  ret i64 %.0
}